target datalayout = "e-m:e-p270:32:32-p271:32:32-p272:64:64-i64:64-i128:128-f80:128-n8:16:32:64-S128"
target triple = "x86_64-pc-linux-gnu"

%struct.Abc_Ntk_t_ = type { i32, i32, ptr, ptr, ptr, ptr, ptr, ptr, ptr, ptr, ptr, ptr, ptr, [11 x i32], i32, i32, i32, i32, ptr, i32, ptr, ptr, i32, i32, i32, double, i32, %struct.Vec_Int_t_, ptr, ptr, ptr, ptr, ptr, float, i32, ptr, ptr, ptr, ptr, ptr, ptr, ptr, ptr, ptr, ptr, ptr, ptr, ptr, ptr, ptr, ptr, ptr, ptr, ptr, ptr, ptr, ptr }
%struct.Vec_Int_t_ = type { i32, i32, ptr }
%struct.DdManager = type { %struct.DdNode, ptr, ptr, ptr, ptr, ptr, ptr, ptr, i32, i32, double, double, double, i32, i32, i32, i32, i32, i32, ptr, ptr, %struct.DdSubtable, i32, i32, i32, i32, i32, i32, i32, double, i32, i32, i32, ptr, i64, double, i32, ptr, ptr, ptr, ptr, ptr, ptr, ptr, i32, ptr, ptr, ptr, ptr, ptr, ptr, i32, i32, i32, double, i32, i32, i32, i32, double, double, i32, i32, i32, i32, i32, i32, i32, i32, i32, ptr, ptr, i32, i32, i32, i32, i32, i32, ptr, ptr, ptr, ptr, ptr, ptr, ptr, ptr, i32, i64, i64, i64, i32, i64, i64, double, double, double, double, double, double, i32, ptr, ptr, i64 }
%struct.DdNode = type { i32, i32, ptr, %union.anon, i64 }
%union.anon = type { %struct.DdChildren }
%struct.DdChildren = type { ptr, ptr }
%struct.DdSubtable = type { ptr, i32, i32, i32, i32, i32, i32, i32, i32, i32, i32, i32 }
%struct.Abc_Obj_t_ = type { ptr, ptr, i32, i32, %struct.Vec_Int_t_, %struct.Vec_Int_t_, %union.anon.0, %union.anon.1 }
%union.anon.0 = type { ptr }
%union.anon.1 = type { ptr }

; Function Attrs: inlinehint nounwind uwtable
define internal ptr @Abc_NtkCreateNode(ptr noundef %0) #4 {
  %2 = alloca ptr, align 8
  store ptr %0, ptr %2, align 8, !tbaa !3
  %3 = load ptr, ptr %2, align 8, !tbaa !3
  %4 = call ptr @Abc_NtkCreateObj(ptr noundef %3, i32 noundef 7)
  ret ptr %4
}

; Function Attrs: nounwind uwtable
define internal ptr @Abc_NtkDsdConstructNode(ptr noundef %0, ptr noundef %1, ptr noundef %2, ptr noundef %3) #0 {
  %5 = alloca ptr, align 8
  %6 = alloca ptr, align 8
  %7 = alloca ptr, align 8
  %8 = alloca ptr, align 8
  %9 = alloca ptr, align 8
  %10 = alloca ptr, align 8
  %11 = alloca ptr, align 8
  %12 = alloca ptr, align 8
  %13 = alloca ptr, align 8
  %14 = alloca ptr, align 8
  %15 = alloca ptr, align 8
  %16 = alloca ptr, align 8
  %17 = alloca i32, align 4
  %18 = alloca i32, align 4
  %19 = alloca i32, align 4
  store ptr %0, ptr %5, align 8, !tbaa !33
  store ptr %1, ptr %6, align 8, !tbaa !65
  store ptr %2, ptr %7, align 8, !tbaa !3
  store ptr %3, ptr %8, align 8, !tbaa !61
  call void @llvm.lifetime.start.p0(i64 8, ptr %9) #8
  %20 = load ptr, ptr %5, align 8, !tbaa !33
  %21 = call ptr @Dsd_ManagerReadDd(ptr noundef %20)
  store ptr %21, ptr %9, align 8, !tbaa !10
  call void @llvm.lifetime.start.p0(i64 8, ptr %10) #8
  %22 = load ptr, ptr %7, align 8, !tbaa !3
  %23 = getelementptr inbounds nuw %struct.Abc_Ntk_t_, ptr %22, i32 0, i32 30
  %24 = load ptr, ptr %23, align 8, !tbaa !37
  store ptr %24, ptr %10, align 8, !tbaa !10
  call void @llvm.lifetime.start.p0(i64 8, ptr %11) #8
  call void @llvm.lifetime.start.p0(i64 8, ptr %12) #8
  call void @llvm.lifetime.start.p0(i64 8, ptr %13) #8
  call void @llvm.lifetime.start.p0(i64 8, ptr %14) #8
  store ptr null, ptr %14, align 8, !tbaa !72
  call void @llvm.lifetime.start.p0(i64 8, ptr %15) #8
  call void @llvm.lifetime.start.p0(i64 8, ptr %16) #8
  call void @llvm.lifetime.start.p0(i64 4, ptr %17) #8
  call void @llvm.lifetime.start.p0(i64 4, ptr %18) #8
  call void @llvm.lifetime.start.p0(i64 4, ptr %19) #8
  %25 = load ptr, ptr %7, align 8, !tbaa !3
  %26 = call ptr @Abc_NtkCreateNode(ptr noundef %25)
  store ptr %26, ptr %12, align 8, !tbaa !29
  %27 = load ptr, ptr %6, align 8, !tbaa !65
  %28 = call i32 @Dsd_NodeReadType(ptr noundef %27)
  store i32 %28, ptr %17, align 4, !tbaa !8
  %29 = load ptr, ptr %6, align 8, !tbaa !65
  %30 = call i32 @Dsd_NodeReadDecsNum(ptr noundef %29)
  store i32 %30, ptr %19, align 4, !tbaa !8
  store i32 0, ptr %18, align 4, !tbaa !8
  br label %31

31:                                               ; preds = %47, %4
  %32 = load i32, ptr %18, align 4, !tbaa !8
  %33 = load i32, ptr %19, align 4, !tbaa !8
  %34 = icmp slt i32 %32, %33
  br i1 %34, label %35, label %50

35:                                               ; preds = %31
  %36 = load ptr, ptr %6, align 8, !tbaa !65
  %37 = load i32, ptr %18, align 4, !tbaa !8
  %38 = call ptr @Dsd_NodeReadDec(ptr noundef %36, i32 noundef %37)
  store ptr %38, ptr %11, align 8, !tbaa !65
  %39 = load ptr, ptr %11, align 8, !tbaa !65
  %40 = ptrtoint ptr %39 to i64
  %41 = and i64 %40, -2
  %42 = inttoptr i64 %41 to ptr
  %43 = call i64 @Dsd_NodeReadMark(ptr noundef %42)
  %44 = inttoptr i64 %43 to ptr
  store ptr %44, ptr %13, align 8, !tbaa !29
  %45 = load ptr, ptr %12, align 8, !tbaa !29
  %46 = load ptr, ptr %13, align 8, !tbaa !29
  call void @Abc_ObjAddFanin(ptr noundef %45, ptr noundef %46)
  br label %47

47:                                               ; preds = %35
  %48 = load i32, ptr %18, align 4, !tbaa !8
  %49 = add nsw i32 %48, 1
  store i32 %49, ptr %18, align 4, !tbaa !8
  br label %31, !llvm.loop !101

50:                                               ; preds = %31
  %51 = load ptr, ptr %7, align 8, !tbaa !3
  %52 = getelementptr inbounds nuw %struct.Abc_Ntk_t_, ptr %51, i32 0, i32 30
  %53 = load ptr, ptr %52, align 8, !tbaa !37
  store ptr %53, ptr %10, align 8, !tbaa !10
  %54 = load i32, ptr %17, align 4, !tbaa !8
  switch i32 %54, label %163 [
    i32 1, label %55
    i32 3, label %60
    i32 4, label %102
    i32 5, label %132
  ]

55:                                               ; preds = %50
  %56 = load ptr, ptr %10, align 8, !tbaa !10
  %57 = getelementptr inbounds nuw %struct.DdManager, ptr %56, i32 0, i32 1
  %58 = load ptr, ptr %57, align 8, !tbaa !74
  store ptr %58, ptr %14, align 8, !tbaa !72
  %59 = load ptr, ptr %14, align 8, !tbaa !72
  call void @Cudd_Ref(ptr noundef %59)
  br label %164

60:                                               ; preds = %50
  %61 = load ptr, ptr %10, align 8, !tbaa !10
  %62 = getelementptr inbounds nuw %struct.DdManager, ptr %61, i32 0, i32 1
  %63 = load ptr, ptr %62, align 8, !tbaa !74
  %64 = ptrtoint ptr %63 to i64
  %65 = xor i64 %64, 1
  %66 = inttoptr i64 %65 to ptr
  store ptr %66, ptr %14, align 8, !tbaa !72
  %67 = load ptr, ptr %14, align 8, !tbaa !72
  call void @Cudd_Ref(ptr noundef %67)
  store i32 0, ptr %18, align 4, !tbaa !8
  br label %68

68:                                               ; preds = %98, %60
  %69 = load i32, ptr %18, align 4, !tbaa !8
  %70 = load i32, ptr %19, align 4, !tbaa !8
  %71 = icmp slt i32 %69, %70
  br i1 %71, label %72, label %101

72:                                               ; preds = %68
  %73 = load ptr, ptr %6, align 8, !tbaa !65
  %74 = load i32, ptr %18, align 4, !tbaa !8
  %75 = call ptr @Dsd_NodeReadDec(ptr noundef %73, i32 noundef %74)
  store ptr %75, ptr %11, align 8, !tbaa !65
  %76 = load ptr, ptr %10, align 8, !tbaa !10
  %77 = getelementptr inbounds nuw %struct.DdManager, ptr %76, i32 0, i32 41
  %78 = load ptr, ptr %77, align 8, !tbaa !71
  %79 = load i32, ptr %18, align 4, !tbaa !8
  %80 = sext i32 %79 to i64
  %81 = getelementptr inbounds ptr, ptr %78, i64 %80
  %82 = load ptr, ptr %81, align 8, !tbaa !72
  %83 = ptrtoint ptr %82 to i64
  %84 = load ptr, ptr %11, align 8, !tbaa !65
  %85 = ptrtoint ptr %84 to i64
  %86 = and i64 %85, 1
  %87 = trunc i64 %86 to i32
  %88 = sext i32 %87 to i64
  %89 = xor i64 %83, %88
  %90 = inttoptr i64 %89 to ptr
  store ptr %90, ptr %16, align 8, !tbaa !72
  %91 = load ptr, ptr %10, align 8, !tbaa !10
  %92 = load ptr, ptr %14, align 8, !tbaa !72
  store ptr %92, ptr %15, align 8, !tbaa !72
  %93 = load ptr, ptr %16, align 8, !tbaa !72
  %94 = call ptr @Cudd_bddOr(ptr noundef %91, ptr noundef %92, ptr noundef %93)
  store ptr %94, ptr %14, align 8, !tbaa !72
  %95 = load ptr, ptr %14, align 8, !tbaa !72
  call void @Cudd_Ref(ptr noundef %95)
  %96 = load ptr, ptr %10, align 8, !tbaa !10
  %97 = load ptr, ptr %15, align 8, !tbaa !72
  call void @Cudd_RecursiveDeref(ptr noundef %96, ptr noundef %97)
  br label %98

98:                                               ; preds = %72
  %99 = load i32, ptr %18, align 4, !tbaa !8
  %100 = add nsw i32 %99, 1
  store i32 %100, ptr %18, align 4, !tbaa !8
  br label %68, !llvm.loop !102

101:                                              ; preds = %68
  br label %164

102:                                              ; preds = %50
  %103 = load ptr, ptr %10, align 8, !tbaa !10
  %104 = getelementptr inbounds nuw %struct.DdManager, ptr %103, i32 0, i32 1
  %105 = load ptr, ptr %104, align 8, !tbaa !74
  %106 = ptrtoint ptr %105 to i64
  %107 = xor i64 %106, 1
  %108 = inttoptr i64 %107 to ptr
  store ptr %108, ptr %14, align 8, !tbaa !72
  %109 = load ptr, ptr %14, align 8, !tbaa !72
  call void @Cudd_Ref(ptr noundef %109)
  store i32 0, ptr %18, align 4, !tbaa !8
  br label %110

110:                                              ; preds = %128, %102
  %111 = load i32, ptr %18, align 4, !tbaa !8
  %112 = load i32, ptr %19, align 4, !tbaa !8
  %113 = icmp slt i32 %111, %112
  br i1 %113, label %114, label %131

114:                                              ; preds = %110
  %115 = load ptr, ptr %10, align 8, !tbaa !10
  %116 = load ptr, ptr %14, align 8, !tbaa !72
  store ptr %116, ptr %15, align 8, !tbaa !72
  %117 = load ptr, ptr %10, align 8, !tbaa !10
  %118 = getelementptr inbounds nuw %struct.DdManager, ptr %117, i32 0, i32 41
  %119 = load ptr, ptr %118, align 8, !tbaa !71
  %120 = load i32, ptr %18, align 4, !tbaa !8
  %121 = sext i32 %120 to i64
  %122 = getelementptr inbounds ptr, ptr %119, i64 %121
  %123 = load ptr, ptr %122, align 8, !tbaa !72
  %124 = call ptr @Cudd_bddXor(ptr noundef %115, ptr noundef %116, ptr noundef %123)
  store ptr %124, ptr %14, align 8, !tbaa !72
  %125 = load ptr, ptr %14, align 8, !tbaa !72
  call void @Cudd_Ref(ptr noundef %125)
  %126 = load ptr, ptr %10, align 8, !tbaa !10
  %127 = load ptr, ptr %15, align 8, !tbaa !72
  call void @Cudd_RecursiveDeref(ptr noundef %126, ptr noundef %127)
  br label %128

128:                                              ; preds = %114
  %129 = load i32, ptr %18, align 4, !tbaa !8
  %130 = add nsw i32 %129, 1
  store i32 %130, ptr %18, align 4, !tbaa !8
  br label %110, !llvm.loop !103

131:                                              ; preds = %110
  br label %164

132:                                              ; preds = %50
  %133 = load ptr, ptr %8, align 8, !tbaa !61
  %134 = icmp ne ptr %133, null
  br i1 %134, label %135, label %151

135:                                              ; preds = %132
  %136 = load i32, ptr %19, align 4, !tbaa !8
  %137 = icmp slt i32 %136, 10
  br i1 %137, label %138, label %145

138:                                              ; preds = %135
  %139 = load ptr, ptr %8, align 8, !tbaa !61
  %140 = load i32, ptr %19, align 4, !tbaa !8
  %141 = sext i32 %140 to i64
  %142 = getelementptr inbounds i32, ptr %139, i64 %141
  %143 = load i32, ptr %142, align 4, !tbaa !8
  %144 = add nsw i32 %143, 1
  store i32 %144, ptr %142, align 4, !tbaa !8
  br label %150

145:                                              ; preds = %135
  %146 = load ptr, ptr %8, align 8, !tbaa !61
  %147 = getelementptr inbounds i32, ptr %146, i64 10
  %148 = load i32, ptr %147, align 4, !tbaa !8
  %149 = add nsw i32 %148, 1
  store i32 %149, ptr %147, align 4, !tbaa !8
  br label %150

150:                                              ; preds = %145, %138
  br label %151

151:                                              ; preds = %150, %132
  %152 = load ptr, ptr %9, align 8, !tbaa !10
  %153 = load ptr, ptr %6, align 8, !tbaa !65
  %154 = call ptr @Dsd_TreeGetPrimeFunction(ptr noundef %152, ptr noundef %153)
  store ptr %154, ptr %14, align 8, !tbaa !72
  %155 = load ptr, ptr %14, align 8, !tbaa !72
  call void @Cudd_Ref(ptr noundef %155)
  %156 = load ptr, ptr %9, align 8, !tbaa !10
  %157 = load ptr, ptr %10, align 8, !tbaa !10
  %158 = load ptr, ptr %14, align 8, !tbaa !72
  store ptr %158, ptr %15, align 8, !tbaa !72
  %159 = call ptr @Extra_TransferLevelByLevel(ptr noundef %156, ptr noundef %157, ptr noundef %158)
  store ptr %159, ptr %14, align 8, !tbaa !72
  %160 = load ptr, ptr %14, align 8, !tbaa !72
  call void @Cudd_Ref(ptr noundef %160)
  %161 = load ptr, ptr %9, align 8, !tbaa !10
  %162 = load ptr, ptr %15, align 8, !tbaa !72
  call void @Cudd_RecursiveDeref(ptr noundef %161, ptr noundef %162)
  br label %164

163:                                              ; preds = %50
  br label %164

164:                                              ; preds = %163, %151, %131, %101, %55
  %165 = load ptr, ptr %14, align 8, !tbaa !72
  %166 = load ptr, ptr %12, align 8, !tbaa !29
  %167 = getelementptr inbounds nuw %struct.Abc_Obj_t_, ptr %166, i32 0, i32 6
  store ptr %165, ptr %167, align 8, !tbaa !64
  %168 = load ptr, ptr %6, align 8, !tbaa !65
  %169 = load ptr, ptr %12, align 8, !tbaa !29
  %170 = ptrtoint ptr %169 to i64
  call void @Dsd_NodeSetMark(ptr noundef %168, i64 noundef %170)
  %171 = load ptr, ptr %12, align 8, !tbaa !29
  call void @llvm.lifetime.end.p0(i64 4, ptr %19) #8
  call void @llvm.lifetime.end.p0(i64 4, ptr %18) #8
  call void @llvm.lifetime.end.p0(i64 4, ptr %17) #8
  call void @llvm.lifetime.end.p0(i64 8, ptr %16) #8
  call void @llvm.lifetime.end.p0(i64 8, ptr %15) #8
  call void @llvm.lifetime.end.p0(i64 8, ptr %14) #8
  call void @llvm.lifetime.end.p0(i64 8, ptr %13) #8
  call void @llvm.lifetime.end.p0(i64 8, ptr %12) #8
  call void @llvm.lifetime.end.p0(i64 8, ptr %11) #8
  call void @llvm.lifetime.end.p0(i64 8, ptr %10) #8
  call void @llvm.lifetime.end.p0(i64 8, ptr %9) #8
  ret ptr %171
}