; Function Attrs: nounwind uwtable
define internal fastcc ptr @Abc_NtkDsdConstructNode(ptr noundef %0, ptr noundef %1, ptr noundef %2, ptr noundef %3) unnamed_addr #0 {
  %5 = tail call ptr @Dsd_ManagerReadDd(ptr noundef %0) #10
  %6 = getelementptr inbounds nuw i8, ptr %2, i64 256
  %7 = tail call ptr @Abc_NtkCreateObj(ptr noundef %2, i32 noundef 7) #10
  %8 = tail call i32 @Dsd_NodeReadType(ptr noundef %1) #10
  %9 = tail call i32 @Dsd_NodeReadDecsNum(ptr noundef %1) #10
  %10 = icmp sgt i32 %9, 0
  br i1 %10, label %.lr.ph, label %._crit_edge

.lr.ph:                                           ; preds = %4, %.lr.ph
  %.069 = phi i32 [ %17, %.lr.ph ], [ 0, %4 ]
  %11 = tail call ptr @Dsd_NodeReadDec(ptr noundef %1, i32 noundef %.069) #10
  %12 = ptrtoint ptr %11 to i64
  %13 = and i64 %12, -2
  %14 = inttoptr i64 %13 to ptr
  %15 = tail call i64 @Dsd_NodeReadMark(ptr noundef %14) #10
  %16 = inttoptr i64 %15 to ptr
  tail call void @Abc_ObjAddFanin(ptr noundef %7, ptr noundef %16) #10
  %17 = add nuw nsw i32 %.069, 1
  %exitcond.not = icmp eq i32 %17, %9
  br i1 %exitcond.not, label %._crit_edge, label %.lr.ph, !llvm.loop !87

._crit_edge:                                      ; preds = %.lr.ph, %4
  %18 = load ptr, ptr %6, align 8, !tbaa !43
  switch i32 %8, label %.loopexit [
    i32 1, label %19
    i32 3, label %22
    i32 4, label %41
    i32 5, label %53
  ]

19:                                               ; preds = %._crit_edge
  %20 = getelementptr inbounds nuw i8, ptr %18, i64 40
  %21 = load ptr, ptr %20, align 8, !tbaa !77
  tail call void @Cudd_Ref(ptr noundef %21) #10
  br label %.loopexit

22:                                               ; preds = %._crit_edge
  %23 = getelementptr inbounds nuw i8, ptr %18, i64 40
  %24 = load ptr, ptr %23, align 8, !tbaa !77
  %25 = ptrtoint ptr %24 to i64
  %26 = xor i64 %25, 1
  %27 = inttoptr i64 %26 to ptr
  tail call void @Cudd_Ref(ptr noundef %27) #10
  br i1 %10, label %.lr.ph77, label %.loopexit

.lr.ph77:                                         ; preds = %22
  %28 = getelementptr inbounds nuw i8, ptr %18, i64 344
  %wide.trip.count86 = zext nneg i32 %9 to i64
  br label %29

29:                                               ; preds = %.lr.ph77, %29
  %indvars.iv83 = phi i64 [ 0, %.lr.ph77 ], [ %indvars.iv.next84, %29 ]
  %.16474 = phi ptr [ %27, %.lr.ph77 ], [ %40, %29 ]
  %30 = trunc nuw nsw i64 %indvars.iv83 to i32
  %31 = tail call ptr @Dsd_NodeReadDec(ptr noundef %1, i32 noundef %30) #10
  %32 = load ptr, ptr %28, align 8, !tbaa !72
  %33 = getelementptr inbounds nuw ptr, ptr %32, i64 %indvars.iv83
  %34 = load ptr, ptr %33, align 8, !tbaa !73
  %35 = ptrtoint ptr %34 to i64
  %36 = ptrtoint ptr %31 to i64
  %37 = and i64 %36, 1
  %38 = xor i64 %37, %35
  %39 = inttoptr i64 %38 to ptr
  %40 = tail call ptr @Cudd_bddOr(ptr noundef nonnull %18, ptr noundef %.16474, ptr noundef %39) #10
  tail call void @Cudd_Ref(ptr noundef %40) #10
  tail call void @Cudd_RecursiveDeref(ptr noundef nonnull %18, ptr noundef %.16474) #10
  %indvars.iv.next84 = add nuw nsw i64 %indvars.iv83, 1
  %exitcond87.not = icmp eq i64 %indvars.iv.next84, %wide.trip.count86
  br i1 %exitcond87.not, label %.loopexit, label %29, !llvm.loop !88

41:                                               ; preds = %._crit_edge
  %42 = getelementptr inbounds nuw i8, ptr %18, i64 40
  %43 = load ptr, ptr %42, align 8, !tbaa !77
  %44 = ptrtoint ptr %43 to i64
  %45 = xor i64 %44, 1
  %46 = inttoptr i64 %45 to ptr
  tail call void @Cudd_Ref(ptr noundef %46) #10
  br i1 %10, label %.lr.ph73, label %.loopexit

.lr.ph73:                                         ; preds = %41
  %47 = getelementptr inbounds nuw i8, ptr %18, i64 344
  %wide.trip.count = zext nneg i32 %9 to i64
  br label %48

48:                                               ; preds = %.lr.ph73, %48
  %indvars.iv = phi i64 [ 0, %.lr.ph73 ], [ %indvars.iv.next, %48 ]
  %.26570 = phi ptr [ %46, %.lr.ph73 ], [ %52, %48 ]
  %49 = load ptr, ptr %47, align 8, !tbaa !72
  %50 = getelementptr inbounds nuw ptr, ptr %49, i64 %indvars.iv
  %51 = load ptr, ptr %50, align 8, !tbaa !73
  %52 = tail call ptr @Cudd_bddXor(ptr noundef nonnull %18, ptr noundef %.26570, ptr noundef %51) #10
  tail call void @Cudd_Ref(ptr noundef %52) #10
  tail call void @Cudd_RecursiveDeref(ptr noundef nonnull %18, ptr noundef %.26570) #10
  %indvars.iv.next = add nuw nsw i64 %indvars.iv, 1
  %exitcond82.not = icmp eq i64 %indvars.iv.next, %wide.trip.count
  br i1 %exitcond82.not, label %.loopexit, label %48, !llvm.loop !89

53:                                               ; preds = %._crit_edge
  %.not = icmp eq ptr %3, null
  br i1 %.not, label %65, label %54

54:                                               ; preds = %53
  %55 = icmp slt i32 %9, 10
  br i1 %55, label %56, label %61

56:                                               ; preds = %54
  %57 = sext i32 %9 to i64
  %58 = getelementptr inbounds i32, ptr %3, i64 %57
  %59 = load i32, ptr %58, align 4, !tbaa !60
  %60 = add nsw i32 %59, 1
  store i32 %60, ptr %58, align 4, !tbaa !60
  br label %65

61:                                               ; preds = %54
  %62 = getelementptr inbounds nuw i8, ptr %3, i64 40
  %63 = load i32, ptr %62, align 4, !tbaa !60
  %64 = add nsw i32 %63, 1
  store i32 %64, ptr %62, align 4, !tbaa !60
  br label %65

65:                                               ; preds = %56, %61, %53
  %66 = tail call ptr @Dsd_TreeGetPrimeFunction(ptr noundef %5, ptr noundef %1) #10
  tail call void @Cudd_Ref(ptr noundef %66) #10
  %67 = tail call ptr @Extra_TransferLevelByLevel(ptr noundef %5, ptr noundef %18, ptr noundef %66) #10
  tail call void @Cudd_Ref(ptr noundef %67) #10
  tail call void @Cudd_RecursiveDeref(ptr noundef %5, ptr noundef %66) #10
  br label %.loopexit

.loopexit:                                        ; preds = %48, %29, %41, %22, %._crit_edge, %65, %19
  %.063 = phi ptr [ null, %._crit_edge ], [ %67, %65 ], [ %21, %19 ], [ %27, %22 ], [ %46, %41 ], [ %40, %29 ], [ %52, %48 ]
  %68 = getelementptr inbounds nuw i8, ptr %7, i64 56
  store ptr %.063, ptr %68, align 8, !tbaa !58
  %69 = ptrtoint ptr %7 to i64
  tail call void @Dsd_NodeSetMark(ptr noundef %1, i64 noundef %69) #10
  ret ptr %7
}